
build/debug.bin:     file format elf32-littleriscv


Disassembly of section .text:

80000000 <_start>:
80000000:	00008117          	auipc	sp,0x8
80000004:	00c000ef          	jal	ra,80000010 <main>
80000008:	0610006f          	j	80000868 <_endProgram>
8000000c:	0000                	unimp
	...

80000010 <main>:
80000010:	00001697          	auipc	a3,0x1
80000014:	96068693          	addi	a3,a3,-1696 # 80000970 <welcome_str>
80000018:	1f4000ef          	jal	ra,8000020c <print_string>
8000001c:	00001697          	auipc	a3,0x1
80000020:	87868693          	addi	a3,a3,-1928 # 80000894 <help_str>
80000024:	1e8000ef          	jal	ra,8000020c <print_string>

80000028 <Save_Template_Commands>:
80000028:	00001337          	lui	t1,0x1
8000002c:	44524237          	lui	tp,0x44524
80000030:	54726213          	ori	tp,tp,1351
80000034:	00432023          	sw	tp,0(t1) # 1000 <_end-0x8003000>
80000038:	444d4237          	lui	tp,0x444d4
8000003c:	54d26213          	ori	tp,tp,1357
80000040:	00432223          	sw	tp,4(t1)
80000044:	4d4f4237          	lui	tp,0x4d4f4
80000048:	44d26213          	ori	tp,tp,1101
8000004c:	00432423          	sw	tp,8(t1)
80000050:	4c4f4237          	lui	tp,0x4c4f4
80000054:	14426213          	ori	tp,tp,324
80000058:	00432823          	sw	tp,16(t1)
8000005c:	52534237          	lui	tp,0x52534
80000060:	55426213          	ori	tp,tp,1364
80000064:	00432a23          	sw	tp,20(t1)
80000068:	48454237          	lui	tp,0x48454
8000006c:	0c500293          	li	t0,197
80000070:	00429293          	slli	t0,t0,0x4
80000074:	0042e233          	or	tp,t0,tp
80000078:	00432c23          	sw	tp,24(t1)
8000007c:	434c5237          	lui	tp,0x434c5
80000080:	25326213          	ori	tp,tp,595
80000084:	00432e23          	sw	tp,28(t1)

80000088 <Init1>:
80000088:	02000713          	li	a4,32
8000008c:	00d00793          	li	a5,13
80000090:	00000893          	li	a7,0
80000094:	00000c13          	li	s8,0
80000098:	00000e93          	li	t4,0

8000009c <Start>:
8000009c:	000005b7          	lui	a1,0x0
800000a0:	000009b7          	lui	s3,0x0
800000a4:	00000937          	lui	s2,0x0
800000a8:	00000a37          	lui	s4,0x0
800000ac:	008000ef          	jal	ra,800000b4 <ReadCommand>
800000b0:	0c000663          	beqz	zero,8000017c <Compare>

800000b4 <ReadCommand>:
800000b4:	ffc10113          	addi	sp,sp,-4 # 80007ffc <invalid_str+0x7659>
800000b8:	00112223          	sw	ra,4(sp)

800000bc <print_cursor>:
800000bc:	03e00213          	li	tp,62
800000c0:	77f023f3          	csrr	t2,0x77f
800000c4:	1003f393          	andi	t2,t2,256
800000c8:	fe038ae3          	beqz	t2,800000bc <print_cursor>
800000cc:	77f21073          	csrw	0x77f,tp

800000d0 <read>:
800000d0:	77e02673          	csrr	a2,0x77e
800000d4:	10067413          	andi	s0,a2,256
800000d8:	fe040ce3          	beqz	s0,800000d0 <read>
800000dc:	0ff67613          	andi	a2,a2,255

800000e0 <loopback>:
800000e0:	77f023f3          	csrr	t2,0x77f
800000e4:	1003f393          	andi	t2,t2,256
800000e8:	fe038ce3          	beqz	t2,800000e0 <loopback>
800000ec:	77f61073          	csrw	0x77f,a2
800000f0:	06e60c63          	beq	a2,a4,80000168 <Next_arg>
800000f4:	06f60e63          	beq	a2,a5,80000170 <Check_for_end>
800000f8:	00300e93          	li	t4,3
800000fc:	05dc0863          	beq	s8,t4,8000014c <Arg3>
80000100:	00200e93          	li	t4,2
80000104:	03dc0a63          	beq	s8,t4,80000138 <Arg2>
80000108:	00100e93          	li	t4,1
8000010c:	01dc0863          	beq	s8,t4,8000011c <Arg1>
80000110:	00859593          	slli	a1,a1,0x8
80000114:	00c5e5b3          	or	a1,a1,a2
80000118:	fa000ce3          	beqz	zero,800000d0 <read>

8000011c <Arg1>:
8000011c:	00499993          	slli	s3,s3,0x4
80000120:	fd060613          	addi	a2,a2,-48
80000124:	00a06e93          	ori	t4,zero,10
80000128:	01d64463          	blt	a2,t4,80000130 <cont_arg1>
8000012c:	ff960613          	addi	a2,a2,-7

80000130 <cont_arg1>:
80000130:	00c9e9b3          	or	s3,s3,a2
80000134:	f8000ee3          	beqz	zero,800000d0 <read>

80000138 <Arg2>:
80000138:	00a00e93          	li	t4,10
8000013c:	03d90933          	mul	s2,s2,t4
80000140:	fd060613          	addi	a2,a2,-48
80000144:	00c90933          	add	s2,s2,a2
80000148:	f80004e3          	beqz	zero,800000d0 <read>

8000014c <Arg3>:
8000014c:	004a1a13          	slli	s4,s4,0x4
80000150:	fd060613          	addi	a2,a2,-48
80000154:	00906e93          	ori	t4,zero,9
80000158:	01d64463          	blt	a2,t4,80000160 <cont_arg3>
8000015c:	ff960613          	addi	a2,a2,-7

80000160 <cont_arg3>:
80000160:	00ca6a33          	or	s4,s4,a2
80000164:	f60006e3          	beqz	zero,800000d0 <read>

80000168 <Next_arg>:
80000168:	001c0c13          	addi	s8,s8,1
8000016c:	f60002e3          	beqz	zero,800000d0 <read>

80000170 <Check_for_end>:
80000170:	00412083          	lw	ra,4(sp)
80000174:	00410113          	addi	sp,sp,4
80000178:	00008067          	ret

8000017c <Compare>:
8000017c:	00001337          	lui	t1,0x1
80000180:	00032483          	lw	s1,0(t1) # 1000 <_end-0x8003000>
80000184:	04958263          	beq	a1,s1,800001c8 <DREG>
80000188:	00432483          	lw	s1,4(t1)
8000018c:	04958263          	beq	a1,s1,800001d0 <DMEM>
80000190:	00832483          	lw	s1,8(t1)
80000194:	04958263          	beq	a1,s1,800001d8 <MODM>
80000198:	01032483          	lw	s1,16(t1)
8000019c:	04958263          	beq	a1,s1,800001e0 <LOAD>
800001a0:	01432483          	lw	s1,20(t1)
800001a4:	04958263          	beq	a1,s1,800001e8 <RSET>
800001a8:	01832483          	lw	s1,24(t1)
800001ac:	04958463          	beq	a1,s1,800001f4 <HELP>
800001b0:	01c32483          	lw	s1,28(t1)
800001b4:	04958863          	beq	a1,s1,80000204 <CLRS>
800001b8:	00000697          	auipc	a3,0x0
800001bc:	7eb68693          	addi	a3,a3,2027 # 800009a3 <invalid_str>
800001c0:	04c000ef          	jal	ra,8000020c <print_string>
800001c4:	ec0002e3          	beqz	zero,80000088 <Init1>

800001c8 <DREG>:
800001c8:	0a8000ef          	jal	ra,80000270 <display_register>
800001cc:	ea000ee3          	beqz	zero,80000088 <Init1>

800001d0 <DMEM>:
800001d0:	320000ef          	jal	ra,800004f0 <display_memory>
800001d4:	ea000ae3          	beqz	zero,80000088 <Init1>

800001d8 <MODM>:
800001d8:	548000ef          	jal	ra,80000720 <modmem>
800001dc:	ea0006e3          	beqz	zero,80000088 <Init1>

800001e0 <LOAD>:
800001e0:	580000ef          	jal	ra,80000760 <load>
800001e4:	ea0002e3          	beqz	zero,80000088 <Init1>

800001e8 <RSET>:
800001e8:	298000ef          	jal	ra,80000480 <clearscreen>
800001ec:	00001463          	bnez	zero,800001f4 <HELP>
800001f0:	4a00006f          	j	80000690 <soft_reset>

800001f4 <HELP>:
800001f4:	00000697          	auipc	a3,0x0
800001f8:	6a068693          	addi	a3,a3,1696 # 80000894 <help_str>
800001fc:	010000ef          	jal	ra,8000020c <print_string>
80000200:	e80004e3          	beqz	zero,80000088 <Init1>

80000204 <CLRS>:
80000204:	27c000ef          	jal	ra,80000480 <clearscreen>
80000208:	e80000e3          	beqz	zero,80000088 <Init1>

8000020c <print_string>:
8000020c:	ff410113          	addi	sp,sp,-12
80000210:	00c12623          	sw	a2,12(sp)
80000214:	00b12423          	sw	a1,8(sp)
80000218:	00712223          	sw	t2,4(sp)
8000021c:	00112023          	sw	ra,0(sp)
80000220:	02400593          	li	a1,36

80000224 <rep>:
80000224:	00068603          	lb	a2,0(a3)
80000228:	00c58e63          	beq	a1,a2,80000244 <exit_string>

8000022c <rep1>:
8000022c:	77f023f3          	csrr	t2,0x77f
80000230:	1003f393          	andi	t2,t2,256
80000234:	fe038ce3          	beqz	t2,8000022c <rep1>
80000238:	77f61073          	csrw	0x77f,a2
8000023c:	00168693          	addi	a3,a3,1
80000240:	fea502e3          	beq	a0,a0,80000224 <rep>

80000244 <exit_string>:
80000244:	00012083          	lw	ra,0(sp)
80000248:	00412383          	lw	t2,4(sp)
8000024c:	00812583          	lw	a1,8(sp)
80000250:	00c12603          	lw	a2,12(sp)
80000254:	00c10113          	addi	sp,sp,12
80000258:	00008067          	ret

8000025c <exit>:
8000025c:	0000006f          	j	8000025c <exit>
	...

80000270 <display_register>:
80000270:	00012023          	sw	zero,0(sp)
80000274:	fe112e23          	sw	ra,-4(sp)
80000278:	fe212c23          	sw	sp,-8(sp)
8000027c:	fe312a23          	sw	gp,-12(sp)
80000280:	fe412823          	sw	tp,-16(sp)
80000284:	fe512623          	sw	t0,-20(sp)
80000288:	fe612423          	sw	t1,-24(sp)
8000028c:	fe712223          	sw	t2,-28(sp)
80000290:	fe812023          	sw	s0,-32(sp)
80000294:	fc912e23          	sw	s1,-36(sp)
80000298:	fca12c23          	sw	a0,-40(sp)
8000029c:	fcb12a23          	sw	a1,-44(sp)
800002a0:	fcc12823          	sw	a2,-48(sp)
800002a4:	fcd12623          	sw	a3,-52(sp)
800002a8:	fce12423          	sw	a4,-56(sp)
800002ac:	fcf12223          	sw	a5,-60(sp)
800002b0:	fd012023          	sw	a6,-64(sp)
800002b4:	fb112e23          	sw	a7,-68(sp)
800002b8:	fb212c23          	sw	s2,-72(sp)
800002bc:	fb312a23          	sw	s3,-76(sp)
800002c0:	fb412823          	sw	s4,-80(sp)
800002c4:	fb512623          	sw	s5,-84(sp)
800002c8:	fb612423          	sw	s6,-88(sp)
800002cc:	fb712223          	sw	s7,-92(sp)
800002d0:	fb812023          	sw	s8,-96(sp)
800002d4:	f9912e23          	sw	s9,-100(sp)
800002d8:	f9a12c23          	sw	s10,-104(sp)
800002dc:	f9b12a23          	sw	s11,-108(sp)
800002e0:	f9c12823          	sw	t3,-112(sp)
800002e4:	f9d12623          	sw	t4,-116(sp)
800002e8:	f9e12423          	sw	t5,-120(sp)
800002ec:	f9f12223          	sw	t6,-124(sp)
800002f0:	02000693          	li	a3,32
800002f4:	00010713          	mv	a4,sp
800002f8:	00400513          	li	a0,4
800002fc:	00000393          	li	t2,0
80000300:	00800493          	li	s1,8
80000304:	00a00a93          	li	s5,10
80000308:	00000e93          	li	t4,0
8000030c:	00000c93          	li	s9,0
80000310:	00400f93          	li	t6,4

80000314 <main_subr>:
80000314:	00400f93          	li	t6,4
80000318:	03a00913          	li	s2,58
8000031c:	001e8e93          	addi	t4,t4,1
80000320:	00600993          	li	s3,6
80000324:	00000b93          	li	s7,0
80000328:	000c8593          	mv	a1,s9
8000032c:	00000e13          	li	t3,0

80000330 <loopr>:
80000330:	01f5da33          	srl	s4,a1,t6
80000334:	ffcf8f93          	addi	t6,t6,-4
80000338:	00fa7a13          	andi	s4,s4,15
8000033c:	015a5663          	ble	s5,s4,80000348 <alpha1r>
80000340:	030a0a13          	addi	s4,s4,48 # 30 <_end-0x8003fd0>
80000344:	00a50663          	beq	a0,a0,80000350 <printr>

80000348 <alpha1r>:
80000348:	057a0a13          	addi	s4,s4,87
8000034c:	00a50263          	beq	a0,a0,80000350 <printr>

80000350 <printr>:
80000350:	08800f6f          	jal	t5,800003d8 <waitr>
80000354:	77fa1073          	csrw	0x77f,s4
80000358:	00198993          	addi	s3,s3,1 # 1 <_end-0x8003fff>
8000035c:	fc999ae3          	bne	s3,s1,80000330 <loopr>
80000360:	035e0463          	beq	t3,s5,80000388 <nextr>
80000364:	00090a13          	mv	s4,s2

80000368 <spacesr>:
80000368:	07000f6f          	jal	t5,800003d8 <waitr>
8000036c:	77fa1073          	csrw	0x77f,s4
80000370:	00072303          	lw	t1,0(a4)
80000374:	01c00f93          	li	t6,28
80000378:	00030593          	mv	a1,t1
8000037c:	00a00e13          	li	t3,10
80000380:	00000993          	li	s3,0
80000384:	faa506e3          	beq	a0,a0,80000330 <loopr>

80000388 <nextr>:
80000388:	00900a13          	li	s4,9
8000038c:	04c00f6f          	jal	t5,800003d8 <waitr>
80000390:	77fa1073          	csrw	0x77f,s4
80000394:	02ae8863          	beq	t4,a0,800003c4 <line_changer>

80000398 <next1r>:
80000398:	ffc70713          	addi	a4,a4,-4
8000039c:	00138393          	addi	t2,t2,1
800003a0:	001c8c93          	addi	s9,s9,1
800003a4:	000c8813          	mv	a6,s9
800003a8:	00fcfc93          	andi	s9,s9,15
800003ac:	015cc663          	blt	s9,s5,800003b8 <herer>
800003b0:	0f087813          	andi	a6,a6,240
800003b4:	01080813          	addi	a6,a6,16

800003b8 <herer>:
800003b8:	00080c93          	mv	s9,a6
800003bc:	f4d39ce3          	bne	t2,a3,80000314 <main_subr>
800003c0:	02a50463          	beq	a0,a0,800003e8 <exit_DREG>

800003c4 <line_changer>:
800003c4:	00a00e93          	li	t4,10
800003c8:	01000f6f          	jal	t5,800003d8 <waitr>
800003cc:	77fe9073          	csrw	0x77f,t4
800003d0:	00000e93          	li	t4,0
800003d4:	fca502e3          	beq	a0,a0,80000398 <next1r>

800003d8 <waitr>:
800003d8:	77f02c73          	csrr	s8,0x77f
800003dc:	100c7b13          	andi	s6,s8,256
800003e0:	fe0b0ce3          	beqz	s6,800003d8 <waitr>
800003e4:	000f0067          	jr	t5

800003e8 <exit_DREG>:
800003e8:	00012003          	lw	zero,0(sp)
800003ec:	ffc12083          	lw	ra,-4(sp)
800003f0:	ff812103          	lw	sp,-8(sp)
800003f4:	ff412183          	lw	gp,-12(sp)
800003f8:	ff012203          	lw	tp,-16(sp)
800003fc:	fec12283          	lw	t0,-20(sp)
80000400:	fe812303          	lw	t1,-24(sp)
80000404:	fe412383          	lw	t2,-28(sp)
80000408:	fe012403          	lw	s0,-32(sp)
8000040c:	fdc12483          	lw	s1,-36(sp)
80000410:	fd812503          	lw	a0,-40(sp)
80000414:	fd412583          	lw	a1,-44(sp)
80000418:	fd012603          	lw	a2,-48(sp)
8000041c:	fcc12683          	lw	a3,-52(sp)
80000420:	fc812703          	lw	a4,-56(sp)
80000424:	fc412783          	lw	a5,-60(sp)
80000428:	fc012803          	lw	a6,-64(sp)
8000042c:	fbc12883          	lw	a7,-68(sp)
80000430:	fb812903          	lw	s2,-72(sp)
80000434:	fb412983          	lw	s3,-76(sp)
80000438:	fb012a03          	lw	s4,-80(sp)
8000043c:	fac12a83          	lw	s5,-84(sp)
80000440:	fa812b03          	lw	s6,-88(sp)
80000444:	fa412b83          	lw	s7,-92(sp)
80000448:	fa012c03          	lw	s8,-96(sp)
8000044c:	f9c12c83          	lw	s9,-100(sp)
80000450:	f9812d03          	lw	s10,-104(sp)
80000454:	f9412d83          	lw	s11,-108(sp)
80000458:	f9012e03          	lw	t3,-112(sp)
8000045c:	f8c12e83          	lw	t4,-116(sp)
80000460:	f8812f03          	lw	t5,-120(sp)
80000464:	f8412f83          	lw	t6,-124(sp)
80000468:	00008067          	ret
	...

80000480 <clearscreen>:
80000480:	fec10113          	addi	sp,sp,-20
80000484:	00112023          	sw	ra,0(sp)
80000488:	00612223          	sw	t1,4(sp)
8000048c:	00712423          	sw	t2,8(sp)
80000490:	00812623          	sw	s0,12(sp)
80000494:	00a12823          	sw	a0,16(sp)
80000498:	01e12a23          	sw	t5,20(sp)
8000049c:	00a00313          	li	t1,10
800004a0:	06400393          	li	t2,100
800004a4:	00000413          	li	s0,0

800004a8 <PrintHundred>:
800004a8:	77f02573          	csrr	a0,0x77f
800004ac:	10057f13          	andi	t5,a0,256
800004b0:	fe0f0ce3          	beqz	t5,800004a8 <PrintHundred>
800004b4:	77f31073          	csrw	0x77f,t1
800004b8:	00140413          	addi	s0,s0,1
800004bc:	fe7416e3          	bne	s0,t2,800004a8 <PrintHundred>

800004c0 <exit_clearscreen>:
800004c0:	00012083          	lw	ra,0(sp)
800004c4:	00412303          	lw	t1,4(sp)
800004c8:	00812383          	lw	t2,8(sp)
800004cc:	00c12403          	lw	s0,12(sp)
800004d0:	01012503          	lw	a0,16(sp)
800004d4:	01412f03          	lw	t5,20(sp)
800004d8:	01410113          	addi	sp,sp,20
800004dc:	00008067          	ret
	...

800004f0 <display_memory>:
800004f0:	fb810113          	addi	sp,sp,-72
800004f4:	04112423          	sw	ra,72(sp)
800004f8:	05812223          	sw	s8,68(sp)
800004fc:	05712023          	sw	s7,64(sp)
80000500:	03612e23          	sw	s6,60(sp)
80000504:	03512c23          	sw	s5,56(sp)
80000508:	03412a23          	sw	s4,52(sp)
8000050c:	03312823          	sw	s3,48(sp)
80000510:	03212623          	sw	s2,44(sp)
80000514:	02912423          	sw	s1,40(sp)
80000518:	03f12223          	sw	t6,36(sp)
8000051c:	03e12023          	sw	t5,32(sp)
80000520:	01d12e23          	sw	t4,28(sp)
80000524:	01c12c23          	sw	t3,24(sp)
80000528:	00712a23          	sw	t2,20(sp)
8000052c:	00612823          	sw	t1,16(sp)
80000530:	00e12623          	sw	a4,12(sp)
80000534:	00d12423          	sw	a3,8(sp)
80000538:	00b12223          	sw	a1,4(sp)
8000053c:	00a12023          	sw	a0,0(sp)
80000540:	00000693          	li	a3,0
80000544:	00000713          	li	a4,0
80000548:	00090693          	mv	a3,s2
8000054c:	00098713          	mv	a4,s3
80000550:	00400513          	li	a0,4
80000554:	02000913          	li	s2,32
80000558:	00000393          	li	t2,0
8000055c:	00800493          	li	s1,8
80000560:	00a00a93          	li	s5,10
80000564:	00000e93          	li	t4,0
80000568:	00000593          	li	a1,0

8000056c <main_sub>:
8000056c:	01c00f93          	li	t6,28
80000570:	03a00913          	li	s2,58
80000574:	001e8e93          	addi	t4,t4,1
80000578:	00070593          	mv	a1,a4
8000057c:	00000993          	li	s3,0
80000580:	00000b93          	li	s7,0
80000584:	00000e13          	li	t3,0

80000588 <loop>:
80000588:	01f5da33          	srl	s4,a1,t6
8000058c:	ffcf8f93          	addi	t6,t6,-4
80000590:	00fa7a13          	andi	s4,s4,15
80000594:	015a5663          	ble	s5,s4,800005a0 <alpha1>
80000598:	030a0a13          	addi	s4,s4,48
8000059c:	00a50663          	beq	a0,a0,800005a8 <print>

800005a0 <alpha1>:
800005a0:	057a0a13          	addi	s4,s4,87
800005a4:	00a50263          	beq	a0,a0,800005a8 <print>

800005a8 <print>:
800005a8:	07000f6f          	jal	t5,80000618 <wait>
800005ac:	00000013          	nop
800005b0:	77fa1073          	csrw	0x77f,s4
800005b4:	00198993          	addi	s3,s3,1
800005b8:	fc9998e3          	bne	s3,s1,80000588 <loop>
800005bc:	035e0463          	beq	t3,s5,800005e4 <next>
800005c0:	00090a13          	mv	s4,s2

800005c4 <spaces>:
800005c4:	05400f6f          	jal	t5,80000618 <wait>
800005c8:	77fa1073          	csrw	0x77f,s4
800005cc:	00072303          	lw	t1,0(a4)
800005d0:	01c00f93          	li	t6,28
800005d4:	00030593          	mv	a1,t1
800005d8:	00a00e13          	li	t3,10
800005dc:	00000993          	li	s3,0
800005e0:	faa504e3          	beq	a0,a0,80000588 <loop>

800005e4 <next>:
800005e4:	00900913          	li	s2,9
800005e8:	03000f6f          	jal	t5,80000618 <wait>
800005ec:	77f91073          	csrw	0x77f,s2
800005f0:	00ae8a63          	beq	t4,a0,80000604 <line_change>

800005f4 <next1>:
800005f4:	00470713          	addi	a4,a4,4
800005f8:	00138393          	addi	t2,t2,1
800005fc:	f6d3c8e3          	blt	t2,a3,8000056c <main_sub>
80000600:	02a50463          	beq	a0,a0,80000628 <exit2>

80000604 <line_change>:
80000604:	00a00e93          	li	t4,10
80000608:	01000f6f          	jal	t5,80000618 <wait>
8000060c:	77fe9073          	csrw	0x77f,t4
80000610:	00000e93          	li	t4,0
80000614:	fea500e3          	beq	a0,a0,800005f4 <next1>

80000618 <wait>:
80000618:	77f02c73          	csrr	s8,0x77f
8000061c:	100c7b13          	andi	s6,s8,256
80000620:	fe0b0ce3          	beqz	s6,80000618 <wait>
80000624:	000f0067          	jr	t5

80000628 <exit2>:
80000628:	04812083          	lw	ra,72(sp)
8000062c:	04412c03          	lw	s8,68(sp)
80000630:	04012b83          	lw	s7,64(sp)
80000634:	03c12b03          	lw	s6,60(sp)
80000638:	03812a83          	lw	s5,56(sp)
8000063c:	03412a03          	lw	s4,52(sp)
80000640:	03012983          	lw	s3,48(sp)
80000644:	02c12903          	lw	s2,44(sp)
80000648:	02812483          	lw	s1,40(sp)
8000064c:	02412f83          	lw	t6,36(sp)
80000650:	02012f03          	lw	t5,32(sp)
80000654:	01c12e83          	lw	t4,28(sp)
80000658:	01812e03          	lw	t3,24(sp)
8000065c:	01412383          	lw	t2,20(sp)
80000660:	01012303          	lw	t1,16(sp)
80000664:	00c12703          	lw	a4,12(sp)
80000668:	00812683          	lw	a3,8(sp)
8000066c:	00412583          	lw	a1,4(sp)
80000670:	00012503          	lw	a0,0(sp)
80000674:	04810113          	addi	sp,sp,72
80000678:	00008067          	ret
	...

80000690 <soft_reset>:
80000690:	00000093          	li	ra,0
80000694:	00000113          	li	sp,0
80000698:	00000193          	li	gp,0
8000069c:	00000213          	li	tp,0
800006a0:	00000293          	li	t0,0
800006a4:	00000313          	li	t1,0
800006a8:	00000393          	li	t2,0
800006ac:	00000413          	li	s0,0
800006b0:	00000493          	li	s1,0
800006b4:	00000513          	li	a0,0
800006b8:	00050593          	mv	a1,a0
800006bc:	00058613          	mv	a2,a1
800006c0:	00060693          	mv	a3,a2
800006c4:	00068713          	mv	a4,a3
800006c8:	00070793          	mv	a5,a4
800006cc:	00078813          	mv	a6,a5
800006d0:	00080893          	mv	a7,a6
800006d4:	00088913          	mv	s2,a7
800006d8:	00090993          	mv	s3,s2
800006dc:	00098a13          	mv	s4,s3
800006e0:	000a0a93          	mv	s5,s4
800006e4:	000a8b13          	mv	s6,s5
800006e8:	000b0b93          	mv	s7,s6
800006ec:	000b8c13          	mv	s8,s7
800006f0:	000c0c93          	mv	s9,s8
800006f4:	000c8d13          	mv	s10,s9
800006f8:	000d0e13          	mv	t3,s10
800006fc:	000e0e93          	mv	t4,t3
80000700:	000e8f13          	mv	t5,t4
80000704:	000f0f93          	mv	t6,t5
80000708:	00001463          	bnez	zero,80000710 <soft_reset+0x80>
8000070c:	8f5ff06f          	j	80000000 <_start>
	...

80000720 <modmem>:
80000720:	ffc10113          	addi	sp,sp,-4
80000724:	00112223          	sw	ra,4(sp)
80000728:	00712023          	sw	t2,0(sp)
8000072c:	000003b7          	lui	t2,0x0

80000730 <main_sub>:
80000730:	0149a023          	sw	s4,0(s3)
80000734:	00498993          	addi	s3,s3,4
80000738:	00138393          	addi	t2,t2,1 # 1 <_end-0x8003fff>
8000073c:	ff239ae3          	bne	t2,s2,80000730 <main_sub>

80000740 <exit3>:
80000740:	00412083          	lw	ra,4(sp)
80000744:	00012383          	lw	t2,0(sp)
80000748:	00410113          	addi	sp,sp,4
8000074c:	00008067          	ret
	...

80000760 <load>:
80000760:	fd810113          	addi	sp,sp,-40
80000764:	02112423          	sw	ra,40(sp)
80000768:	03212223          	sw	s2,36(sp)
8000076c:	02912023          	sw	s1,32(sp)
80000770:	00812e23          	sw	s0,28(sp)
80000774:	00612c23          	sw	t1,24(sp)
80000778:	00f12a23          	sw	a5,20(sp)
8000077c:	00e12823          	sw	a4,16(sp)
80000780:	00d12623          	sw	a3,12(sp)
80000784:	00c12423          	sw	a2,8(sp)
80000788:	00b12223          	sw	a1,4(sp)
8000078c:	00712023          	sw	t2,0(sp)
80000790:	00000593          	li	a1,0
80000794:	00098593          	mv	a1,s3
80000798:	02300413          	li	s0,35
8000079c:	02400493          	li	s1,36
800007a0:	00d00913          	li	s2,13
800007a4:	00000613          	li	a2,0
800007a8:	00000793          	li	a5,0
800007ac:	00000693          	li	a3,0
800007b0:	00a00813          	li	a6,10

800007b4 <polling>:
800007b4:	77e02673          	csrr	a2,0x77e
800007b8:	10067693          	andi	a3,a2,256
800007bc:	fe068ce3          	beqz	a3,800007b4 <polling>
800007c0:	0ff67713          	andi	a4,a2,255

800007c4 <loopback2>:
800007c4:	77f023f3          	csrr	t2,0x77f
800007c8:	1003f393          	andi	t2,t2,256
800007cc:	fe038ce3          	beqz	t2,800007c4 <loopback2>
800007d0:	77f71073          	csrw	0x77f,a4
800007d4:	fe8710e3          	bne	a4,s0,800007b4 <polling>

800007d8 <beg>:
800007d8:	77e02673          	csrr	a2,0x77e
800007dc:	10067693          	andi	a3,a2,256
800007e0:	fe068ce3          	beqz	a3,800007d8 <beg>
800007e4:	0ff67713          	andi	a4,a2,255

800007e8 <loopback1>:
800007e8:	77f023f3          	csrr	t2,0x77f
800007ec:	1003f393          	andi	t2,t2,256
800007f0:	fe038ce3          	beqz	t2,800007e8 <loopback1>
800007f4:	77f71073          	csrw	0x77f,a4
800007f8:	02970c63          	beq	a4,s1,80000830 <exits>
800007fc:	03270263          	beq	a4,s2,80000820 <store_line>
80000800:	fd070ce3          	beq	a4,a6,800007d8 <beg>
80000804:	00479793          	slli	a5,a5,0x4
80000808:	fd070713          	addi	a4,a4,-48
8000080c:	00a06e93          	ori	t4,zero,10
80000810:	01d76463          	bltu	a4,t4,80000818 <cont_beg1>
80000814:	ff970713          	addi	a4,a4,-7

80000818 <cont_beg1>:
80000818:	00e7e7b3          	or	a5,a5,a4
8000081c:	fa000ee3          	beqz	zero,800007d8 <beg>

80000820 <store_line>:
80000820:	00f5a023          	sw	a5,0(a1) # 0 <_end-0x8004000>
80000824:	000007b7          	lui	a5,0x0
80000828:	00458593          	addi	a1,a1,4
8000082c:	fa0006e3          	beqz	zero,800007d8 <beg>

80000830 <exits>:
80000830:	02812083          	lw	ra,40(sp)
80000834:	02412903          	lw	s2,36(sp)
80000838:	02012483          	lw	s1,32(sp)
8000083c:	01c12403          	lw	s0,28(sp)
80000840:	01812303          	lw	t1,24(sp)
80000844:	01412783          	lw	a5,20(sp)
80000848:	01012703          	lw	a4,16(sp)
8000084c:	00c12683          	lw	a3,12(sp)
80000850:	00812603          	lw	a2,8(sp)
80000854:	00412583          	lw	a1,4(sp)
80000858:	00012383          	lw	t2,0(sp)
8000085c:	02810113          	addi	sp,sp,40
80000860:	00008067          	ret
80000864:	0000                	unimp
	...

80000868 <_endProgram>:
80000868:	00100713          	li	a4,1
8000086c:	00000117          	auipc	sp,0x0
80000870:	00e12e23          	sw	a4,28(sp) # 80000888 <tohost+0x8>

80000874 <loop>:
80000874:	0000006f          	j	80000874 <loop>
80000878:	0000                	unimp
	...

Disassembly of section .tohost:

80000880 <tohost>:
	...

80000890 <fromhost>:
80000890:	0000                	unimp
	...

Disassembly of section .data:

80000894 <help_str>:
80000894:	0a20                	addi	s0,sp,280
80000896:	200a                	fld	ft0,128(sp)
80000898:	5244                	lw	s1,36(a2)
8000089a:	4745                	li	a4,17
8000089c:	203a                	fld	ft0,392(sp)
8000089e:	6944                	flw	fs1,20(a0)
800008a0:	616c7073          	csrci	0x616,24
800008a4:	2079                	jal	80000932 <help_str+0x9e>
800008a6:	4552                	lw	a0,20(sp)
800008a8:	54534947          	0x54534947
800008ac:	5245                	li	tp,-15
800008ae:	200a2053          	fsgnjx.s	ft0,fs4,ft0
800008b2:	53524c43          	fmadd.d	fs8,ft4,fs5,fa0,rmm
800008b6:	203a                	fld	ft0,392(sp)
800008b8:	41454c43          	fmadd.s	fs8,fa0,fs4,fs0,rmm
800008bc:	2052                	fld	ft0,272(sp)
800008be:	45524353          	0x45524353
800008c2:	4e45                	li	t3,17
800008c4:	0a20                	addi	s0,sp,280
800008c6:	4420                	lw	s0,72(s0)
800008c8:	454d                	li	a0,19
800008ca:	3a4d                	jal	8000027c <display_register+0xc>
800008cc:	4820                	lw	s0,80(s0)
800008ce:	7865                	lui	a6,0xffff9
800008d0:	412d                	li	sp,11
800008d2:	6464                	flw	fs1,76(s0)
800008d4:	6572                	flw	fa0,28(sp)
800008d6:	44207373          	csrrci	t1,0x442,0
800008da:	6365                	lui	t1,0x19
800008dc:	4c2d                	li	s8,11
800008de:	7461636f          	jal	t1,80017024 <invalid_str+0x16681>
800008e2:	6f69                	lui	t5,0x1a
800008e4:	206e                	fld	ft0,216(sp)
800008e6:	200a                	fld	ft0,128(sp)
800008e8:	4f4d                	li	t5,19
800008ea:	4d44                	lw	s1,28(a0)
800008ec:	203a                	fld	ft0,392(sp)
800008ee:	754e                	flw	fa0,240(sp)
800008f0:	626d                	lui	tp,0x1b
800008f2:	7265                	lui	tp,0xffff9
800008f4:	6f20                	flw	fs0,88(a4)
800008f6:	2066                	fld	ft0,88(sp)
800008f8:	6f6c                	flw	fa1,92(a4)
800008fa:	2d207363          	bleu	s2,zero,80000bc0 <invalid_str+0x21d>
800008fe:	5320                	lw	s0,96(a4)
80000900:	6174                	flw	fa3,68(a0)
80000902:	7472                	flw	fs0,60(sp)
80000904:	6e69                	lui	t3,0x1a
80000906:	64412067          	0x64412067
8000090a:	7264                	flw	fs1,100(a2)
8000090c:	2d20                	fld	fs0,88(a0)
8000090e:	5620                	lw	s0,104(a2)
80000910:	6c61                	lui	s8,0x18
80000912:	6575                	lui	a0,0x1d
80000914:	2d20                	fld	fs0,88(a0)
80000916:	5420                	lw	s0,104(s0)
80000918:	4843204f          	fnmadd.s	ft0,ft6,ft4,fs1,rdn
8000091c:	4e41                	li	t3,16
8000091e:	4d204547          	0x4d204547
80000922:	4d45                	li	s10,17
80000924:	2059524f          	fnmadd.s	ft4,fs2,ft5,ft4,unknown
80000928:	200a                	fld	ft0,128(sp)
8000092a:	5352                	lw	t1,52(sp)
8000092c:	5445                	li	s0,-15
8000092e:	203a                	fld	ft0,392(sp)
80000930:	54464f53          	0x54464f53
80000934:	45524157          	0x45524157
80000938:	5220                	lw	s0,96(a2)
8000093a:	5345                	li	t1,-15
8000093c:	5445                	li	s0,-15
8000093e:	0a20                	addi	s0,sp,280
80000940:	4820                	lw	s0,80(s0)
80000942:	4c45                	li	s8,17
80000944:	3a50                	fld	fa2,176(a2)
80000946:	4420                	lw	s0,72(s0)
80000948:	5349                	li	t1,-14
8000094a:	4c50                	lw	a2,28(s0)
8000094c:	5941                	li	s2,-16
8000094e:	4320                	lw	s0,64(a4)
80000950:	414d4d4f          	fnmadd.s	fs10,fs10,fs4,fs0,rmm
80000954:	444e                	lw	s0,208(sp)
80000956:	200a2053          	fsgnjx.s	ft0,fs4,ft0
8000095a:	4f4c                	lw	a1,28(a4)
8000095c:	4441                	li	s0,16
8000095e:	203a                	fld	ft0,392(sp)
80000960:	69726553          	0x69726553
80000964:	6c61                	lui	s8,0x18
80000966:	6c20                	flw	fs0,88(s0)
80000968:	2064616f          	jal	sp,80046b6e <invalid_str+0x461cb>
8000096c:	200a                	fld	ft0,128(sp)
8000096e:	0024                	addi	s1,sp,8

80000970 <welcome_str>:
80000970:	0a0a                	slli	s4,s4,0x2
80000972:	5720                	lw	s0,104(a4)
80000974:	6c65                	lui	s8,0x19
80000976:	656d6f63          	bltu	s10,s6,80000fd4 <invalid_str+0x631>
8000097a:	7420                	flw	fs0,104(s0)
8000097c:	4853206f          	j	80033600 <invalid_str+0x32c5d>
80000980:	4b41                	li	s6,16
80000982:	4954                	lw	a3,20(a0)
80000984:	4320                	lw	s0,64(a4)
80000986:	432d                	li	t1,11
80000988:	616c                	flw	fa1,68(a0)
8000098a:	33207373          	csrrci	t1,mhpmevent18,0
8000098e:	2d32                	fld	fs10,264(sp)
80000990:	6962                	flw	fs2,24(sp)
80000992:	2074                	fld	fa3,192(s0)
80000994:	746e6f63          	bltu	t3,t1,800010f2 <invalid_str+0x74f>
80000998:	6f72                	flw	ft10,28(sp)
8000099a:	6c6c                	flw	fa1,92(s0)
8000099c:	7265                	lui	tp,0xffff9
8000099e:	0a20                	addi	s0,sp,280
800009a0:	2420                	fld	fs0,72(s0)
	...

800009a3 <invalid_str>:
800009a3:	4920                	lw	s0,80(a0)
800009a5:	766e                	flw	fa2,248(sp)
800009a7:	6c61                	lui	s8,0x18
800009a9:	6469                	lui	s0,0x1a
800009ab:	6320                	flw	fs0,64(a4)
800009ad:	646d                	lui	s0,0x1b
800009af:	0a20                	addi	s0,sp,280
800009b1:	2420                	fld	fs0,72(s0)
	...

Disassembly of section .comment:

00000000 <.comment>:
   0:	5254                	lw	a3,36(a2)
   2:	4149                	li	sp,18
   4:	004c                	addi	a1,sp,4
